; Function Attrs: nounwind uwtable
define zeroext i8 @l_Array_anyMUnsafe_any___at_Lean_Linter_UnusedVariables_unusedVariables___elambda__1___spec__18___lambda__1(ptr noundef %0, ptr noundef %1) local_unnamed_addr #1 {
  %3 = tail call zeroext i8 @l_Lean_Syntax_isIdent(ptr noundef %1) #7
  %4 = icmp eq i8 %3, 0
  br i1 %4, label %lean_dec.exit, label %5

5:                                                ; preds = %2
  %6 = tail call ptr @l_Lean_Syntax_getRange_x3f(ptr noundef %1, i8 noundef zeroext 0) #7
  %7 = ptrtoint ptr %6 to i64
  %8 = and i64 %7, 1
  %.not.i17 = icmp eq i64 %8, 0
  br i1 %.not.i17, label %12, label %9

9:                                                ; preds = %5
  %10 = lshr i64 %7, 1
  %11 = trunc i64 %10 to i32
  br label %lean_obj_tag.exit

12:                                               ; preds = %5
  %13 = getelementptr i8, ptr %6, i64 4
  %.val.i = load i32, ptr %13, align 4
  %14 = lshr i32 %.val.i, 24
  br label %lean_obj_tag.exit

lean_obj_tag.exit:                                ; preds = %9, %12
  %.0.i = phi i32 [ %11, %9 ], [ %14, %12 ]
  %15 = icmp eq i32 %.0.i, 0
  br i1 %15, label %lean_dec.exit, label %16

16:                                               ; preds = %lean_obj_tag.exit
  %17 = getelementptr inbounds nuw i8, ptr %6, i64 8
  %18 = load ptr, ptr %17, align 8, !tbaa !4
  %19 = ptrtoint ptr %18 to i64
  %20 = and i64 %19, 1
  %.not = icmp eq i64 %20, 0
  br i1 %.not, label %21, label %lean_inc.exit

21:                                               ; preds = %16
  %.val.i18 = load i32, ptr %18, align 4, !tbaa !8
  %22 = icmp sgt i32 %.val.i18, 0
  br i1 %22, label %23, label %25, !prof !11

23:                                               ; preds = %21
  %24 = add nuw i32 %.val.i18, 1
  store i32 %24, ptr %18, align 4, !tbaa !8
  br label %lean_inc.exit

25:                                               ; preds = %21
  %.not.i19 = icmp eq i32 %.val.i18, 0
  br i1 %.not.i19, label %lean_inc.exit, label %26

26:                                               ; preds = %25
  tail call void @lean_inc_ref_cold(ptr noundef nonnull %18) #7
  br label %lean_inc.exit

lean_inc.exit:                                    ; preds = %26, %25, %23, %16
  br i1 %.not.i17, label %27, label %lean_dec.exit14

27:                                               ; preds = %lean_inc.exit
  %28 = load i32, ptr %6, align 4, !tbaa !8
  %29 = icmp sgt i32 %28, 1
  br i1 %29, label %30, label %32, !prof !11

30:                                               ; preds = %27
  %31 = add nsw i32 %28, -1
  store i32 %31, ptr %6, align 4, !tbaa !8
  br label %lean_dec.exit14

32:                                               ; preds = %27
  %.not.i = icmp eq i32 %28, 0
  br i1 %.not.i, label %lean_dec.exit14, label %33

33:                                               ; preds = %32
  tail call void @lean_dec_ref_cold(ptr noundef nonnull %6) #7
  br label %lean_dec.exit14

lean_dec.exit14:                                  ; preds = %33, %32, %30, %lean_inc.exit
  %34 = tail call zeroext i8 @l_String_beqRange____x40_Lean_Syntax___hyg_95_(ptr noundef %18, ptr noundef %0) #7
  br i1 %.not, label %35, label %lean_dec.exit

35:                                               ; preds = %lean_dec.exit14
  %36 = load i32, ptr %18, align 4, !tbaa !8
  %37 = icmp sgt i32 %36, 1
  br i1 %37, label %38, label %40, !prof !11

38:                                               ; preds = %35
  %39 = add nsw i32 %36, -1
  store i32 %39, ptr %18, align 4, !tbaa !8
  br label %lean_dec.exit

40:                                               ; preds = %35
  %.not.i15 = icmp eq i32 %36, 0
  br i1 %.not.i15, label %lean_dec.exit, label %41

41:                                               ; preds = %40
  tail call void @lean_dec_ref_cold(ptr noundef nonnull %18) #7
  br label %lean_dec.exit

lean_dec.exit:                                    ; preds = %lean_dec.exit14, %38, %40, %41, %lean_obj_tag.exit, %2
  %.0 = phi i8 [ 0, %2 ], [ 0, %lean_obj_tag.exit ], [ %34, %41 ], [ %34, %40 ], [ %34, %38 ], [ %34, %lean_dec.exit14 ]
  ret i8 %.0
}